(dp0
S'a'
p1
I9003
sS'c'
p2
I9003
sS'b'
p3
I9003
sS'e'
p4
I9003
sS'd'
p5
I9003
sS'g'
p6
I9004
sS'f'
p7
I9003
sS'i'
p8
I9004
sS'h'
p9
I9004
sS'k'
p10
I9004
sS'j'
p11
I9004
sS'm'
p12
I9004
sS'l'
p13
I9004
sS'o'
p14
I9004
sS'n'
p15
I9004
sS'q'
p16
I9004
sS'p'
p17
I9004
sS's'
p18
I9004
sS'r'
p19
I9004
sS'u'
p20
I9005
sS't'
p21
I9004
sS'w'
p22
I9005
sS'v'
p23
I9005
sS'y'
p24
I9005
sS'x'
p25
I9005
sS'z'
p26
I9005
s.