(dp0
S'a'
p1
I9002
sS'c'
p2
I9002
sS'b'
p3
I9002
sS'e'
p4
I9002
sS'd'
p5
I9002
sS'g'
p6
I9002
sS'f'
p7
I9002
sS'i'
p8
I9002
sS'h'
p9
I9002
sS'k'
p10
I9002
sS'j'
p11
I9002
sS'm'
p12
I9002
sS'l'
p13
I9002
sS'o'
p14
I9002
sS'n'
p15
I9002
sS'q'
p16
I9002
sS'p'
p17
I9002
sS's'
p18
I9002
sS'r'
p19
I9002
sS'u'
p20
I9002
sS't'
p21
I9002
sS'w'
p22
I9002
sS'v'
p23
I9002
sS'y'
p24
I9002
sS'x'
p25
I9002
sS'z'
p26
I9002
s.